target datalayout = "e-m:e-p270:32:32-p271:32:32-p272:64:64-i64:64-i128:128-f80:128-n8:16:32:64-S128"
target triple = "x86_64-pc-linux-gnu"

%"struct.glslang::TSourceLoc" = type { ptr, i32, i32, i32 }
%"class.glslang::TParserToken" = type { ptr }
%"class.glslang::TParseContextBase" = type { %"class.glslang::TParseVersions", ptr, ptr, %"class.glslang::TVector", i32, i32, i32, i32, i32, ptr, i8, i8, %"class.glslang::TList", %"class.glslang::TList.9", %"struct.glslang::TPragma", i32, i32, i8, i8, %"class.glslang::TVector.17", ptr, ptr, %struct.TBuiltInResource, ptr, %"class.std::__cxx11::basic_string", %"class.std::function", %"class.std::function.23", %"class.std::function.26", %"class.std::function.28", %"class.std::function.30", ptr, i32, i32, i32, %"class.glslang::TMap.33", i32, %"class.glslang::TMap.40" }
%"class.glslang::TParseVersions" = type { ptr, i8, i32, ptr, i32, i32, %"struct.glslang::SpvVersion", ptr, %"class.glslang::TMap", %"class.glslang::TMap.3", %"class.glslang::TVector", i32, i32, ptr }
%"struct.glslang::SpvVersion" = type <{ i32, i32, i32, i32, i8, [3 x i8] }>
%"class.glslang::TMap" = type { %"class.std::map" }
%"class.std::map" = type { %"class.std::_Rb_tree" }
%"class.std::_Rb_tree" = type { %"struct.std::_Rb_tree<std::__cxx11::basic_string<char, std::char_traits<char>, glslang::pool_allocator<char>>, std::pair<const std::__cxx11::basic_string<char, std::char_traits<char>, glslang::pool_allocator<char>>, glslang::TExtensionBehavior>, std::_Select1st<std::pair<const std::__cxx11::basic_string<char, std::char_traits<char>, glslang::pool_allocator<char>>, glslang::TExtensionBehavior>>, std::less<std::__cxx11::basic_string<char, std::char_traits<char>, glslang::pool_allocator<char>>>, glslang::pool_allocator<std::pair<const std::__cxx11::basic_string<char, std::char_traits<char>, glslang::pool_allocator<char>>, glslang::TExtensionBehavior>>>::_Rb_tree_impl" }
%"struct.std::_Rb_tree<std::__cxx11::basic_string<char, std::char_traits<char>, glslang::pool_allocator<char>>, std::pair<const std::__cxx11::basic_string<char, std::char_traits<char>, glslang::pool_allocator<char>>, glslang::TExtensionBehavior>, std::_Select1st<std::pair<const std::__cxx11::basic_string<char, std::char_traits<char>, glslang::pool_allocator<char>>, glslang::TExtensionBehavior>>, std::less<std::__cxx11::basic_string<char, std::char_traits<char>, glslang::pool_allocator<char>>>, glslang::pool_allocator<std::pair<const std::__cxx11::basic_string<char, std::char_traits<char>, glslang::pool_allocator<char>>, glslang::TExtensionBehavior>>>::_Rb_tree_impl" = type { %"class.glslang::pool_allocator", %"struct.std::_Rb_tree_key_compare", %"struct.std::_Rb_tree_header" }
%"class.glslang::pool_allocator" = type { ptr }
%"struct.std::_Rb_tree_key_compare" = type { %"struct.std::less" }
%"struct.std::less" = type { i8 }
%"struct.std::_Rb_tree_header" = type { %"struct.std::_Rb_tree_node_base", i64 }
%"struct.std::_Rb_tree_node_base" = type { i32, ptr, ptr, ptr }
%"class.glslang::TMap.3" = type { %"class.std::map.4" }
%"class.std::map.4" = type { %"class.std::_Rb_tree.5" }
%"class.std::_Rb_tree.5" = type { %"struct.std::_Rb_tree<std::__cxx11::basic_string<char, std::char_traits<char>, glslang::pool_allocator<char>>, std::pair<const std::__cxx11::basic_string<char, std::char_traits<char>, glslang::pool_allocator<char>>, unsigned int>, std::_Select1st<std::pair<const std::__cxx11::basic_string<char, std::char_traits<char>, glslang::pool_allocator<char>>, unsigned int>>, std::less<std::__cxx11::basic_string<char, std::char_traits<char>, glslang::pool_allocator<char>>>, glslang::pool_allocator<std::pair<const std::__cxx11::basic_string<char, std::char_traits<char>, glslang::pool_allocator<char>>, unsigned int>>>::_Rb_tree_impl" }
%"struct.std::_Rb_tree<std::__cxx11::basic_string<char, std::char_traits<char>, glslang::pool_allocator<char>>, std::pair<const std::__cxx11::basic_string<char, std::char_traits<char>, glslang::pool_allocator<char>>, unsigned int>, std::_Select1st<std::pair<const std::__cxx11::basic_string<char, std::char_traits<char>, glslang::pool_allocator<char>>, unsigned int>>, std::less<std::__cxx11::basic_string<char, std::char_traits<char>, glslang::pool_allocator<char>>>, glslang::pool_allocator<std::pair<const std::__cxx11::basic_string<char, std::char_traits<char>, glslang::pool_allocator<char>>, unsigned int>>>::_Rb_tree_impl" = type { %"class.glslang::pool_allocator.6", %"struct.std::_Rb_tree_key_compare", %"struct.std::_Rb_tree_header" }
%"class.glslang::pool_allocator.6" = type { ptr }
%"class.glslang::TVector" = type { %"class.std::vector" }
%"class.std::vector" = type { %"struct.std::_Vector_base" }
%"struct.std::_Vector_base" = type { %"struct.std::_Vector_base<std::__cxx11::basic_string<char, std::char_traits<char>, glslang::pool_allocator<char>>, glslang::pool_allocator<std::__cxx11::basic_string<char, std::char_traits<char>, glslang::pool_allocator<char>>>>::_Vector_impl" }
%"struct.std::_Vector_base<std::__cxx11::basic_string<char, std::char_traits<char>, glslang::pool_allocator<char>>, glslang::pool_allocator<std::__cxx11::basic_string<char, std::char_traits<char>, glslang::pool_allocator<char>>>>::_Vector_impl" = type { %"class.glslang::pool_allocator.7", %"struct.std::_Vector_base<std::__cxx11::basic_string<char, std::char_traits<char>, glslang::pool_allocator<char>>, glslang::pool_allocator<std::__cxx11::basic_string<char, std::char_traits<char>, glslang::pool_allocator<char>>>>::_Vector_impl_data" }
%"class.glslang::pool_allocator.7" = type { ptr }
%"struct.std::_Vector_base<std::__cxx11::basic_string<char, std::char_traits<char>, glslang::pool_allocator<char>>, glslang::pool_allocator<std::__cxx11::basic_string<char, std::char_traits<char>, glslang::pool_allocator<char>>>>::_Vector_impl_data" = type { ptr, ptr, ptr }
%"class.glslang::TList" = type { %"class.std::__cxx11::list" }
%"class.std::__cxx11::list" = type { %"class.std::__cxx11::_List_base" }
%"class.std::__cxx11::_List_base" = type { %"struct.std::__cxx11::_List_base<glslang::TVector<TIntermNode *> *, glslang::pool_allocator<glslang::TVector<TIntermNode *> *>>::_List_impl" }
%"struct.std::__cxx11::_List_base<glslang::TVector<TIntermNode *> *, glslang::pool_allocator<glslang::TVector<TIntermNode *> *>>::_List_impl" = type { %"class.glslang::pool_allocator.8", %"struct.std::__detail::_List_node_header" }
%"class.glslang::pool_allocator.8" = type { ptr }
%"struct.std::__detail::_List_node_header" = type { %"struct.std::__detail::_List_node_base", i64 }
%"struct.std::__detail::_List_node_base" = type { ptr, ptr }
%"class.glslang::TList.9" = type { %"class.std::__cxx11::list.10" }
%"class.std::__cxx11::list.10" = type { %"class.std::__cxx11::_List_base.11" }
%"class.std::__cxx11::_List_base.11" = type { %"struct.std::__cxx11::_List_base<int, glslang::pool_allocator<int>>::_List_impl" }
%"struct.std::__cxx11::_List_base<int, glslang::pool_allocator<int>>::_List_impl" = type { %"class.glslang::pool_allocator.12", %"struct.std::__detail::_List_node_header" }
%"class.glslang::pool_allocator.12" = type { ptr }
%"struct.glslang::TPragma" = type { i8, i8, %"class.glslang::TPragmaTable" }
%"class.glslang::TPragmaTable" = type { %"class.glslang::TMap.13" }
%"class.glslang::TMap.13" = type { %"class.std::map.14" }
%"class.std::map.14" = type { %"class.std::_Rb_tree.15" }
%"class.std::_Rb_tree.15" = type { %"struct.std::_Rb_tree<std::__cxx11::basic_string<char, std::char_traits<char>, glslang::pool_allocator<char>>, std::pair<const std::__cxx11::basic_string<char, std::char_traits<char>, glslang::pool_allocator<char>>, std::__cxx11::basic_string<char, std::char_traits<char>, glslang::pool_allocator<char>>>, std::_Select1st<std::pair<const std::__cxx11::basic_string<char, std::char_traits<char>, glslang::pool_allocator<char>>, std::__cxx11::basic_string<char, std::char_traits<char>, glslang::pool_allocator<char>>>>, std::less<std::__cxx11::basic_string<char, std::char_traits<char>, glslang::pool_allocator<char>>>, glslang::pool_allocator<std::pair<const std::__cxx11::basic_string<char, std::char_traits<char>, glslang::pool_allocator<char>>, std::__cxx11::basic_string<char, std::char_traits<char>, glslang::pool_allocator<char>>>>>::_Rb_tree_impl" }
%"struct.std::_Rb_tree<std::__cxx11::basic_string<char, std::char_traits<char>, glslang::pool_allocator<char>>, std::pair<const std::__cxx11::basic_string<char, std::char_traits<char>, glslang::pool_allocator<char>>, std::__cxx11::basic_string<char, std::char_traits<char>, glslang::pool_allocator<char>>>, std::_Select1st<std::pair<const std::__cxx11::basic_string<char, std::char_traits<char>, glslang::pool_allocator<char>>, std::__cxx11::basic_string<char, std::char_traits<char>, glslang::pool_allocator<char>>>>, std::less<std::__cxx11::basic_string<char, std::char_traits<char>, glslang::pool_allocator<char>>>, glslang::pool_allocator<std::pair<const std::__cxx11::basic_string<char, std::char_traits<char>, glslang::pool_allocator<char>>, std::__cxx11::basic_string<char, std::char_traits<char>, glslang::pool_allocator<char>>>>>::_Rb_tree_impl" = type { %"class.glslang::pool_allocator.16", %"struct.std::_Rb_tree_key_compare", %"struct.std::_Rb_tree_header" }
%"class.glslang::pool_allocator.16" = type { ptr }
%"class.glslang::TVector.17" = type { %"class.std::vector.18" }
%"class.std::vector.18" = type { %"struct.std::_Vector_base.19" }
%"struct.std::_Vector_base.19" = type { %"struct.std::_Vector_base<glslang::TSymbol *, glslang::pool_allocator<glslang::TSymbol *>>::_Vector_impl" }
%"struct.std::_Vector_base<glslang::TSymbol *, glslang::pool_allocator<glslang::TSymbol *>>::_Vector_impl" = type { %"class.glslang::pool_allocator.20", %"struct.std::_Vector_base<glslang::TSymbol *, glslang::pool_allocator<glslang::TSymbol *>>::_Vector_impl_data" }
%"class.glslang::pool_allocator.20" = type { ptr }
%"struct.std::_Vector_base<glslang::TSymbol *, glslang::pool_allocator<glslang::TSymbol *>>::_Vector_impl_data" = type { ptr, ptr, ptr }
%struct.TBuiltInResource = type { i32, i32, i32, i32, i32, i32, i32, i32, i32, i32, i32, i32, i32, i32, i32, i32, i32, i32, i32, i32, i32, i32, i32, i32, i32, i32, i32, i32, i32, i32, i32, i32, i32, i32, i32, i32, i32, i32, i32, i32, i32, i32, i32, i32, i32, i32, i32, i32, i32, i32, i32, i32, i32, i32, i32, i32, i32, i32, i32, i32, i32, i32, i32, i32, i32, i32, i32, i32, i32, i32, i32, i32, i32, i32, i32, i32, i32, i32, i32, i32, i32, i32, i32, i32, i32, i32, i32, i32, i32, i32, i32, i32, i32, i32, i32, i32, i32, i32, i32, i32, i32, i32, %struct.TLimits }
%struct.TLimits = type { i8, i8, i8, i8, i8, i8, i8, i8, i8 }
%"class.std::__cxx11::basic_string" = type { %"struct.std::__cxx11::basic_string<char, std::char_traits<char>, glslang::pool_allocator<char>>::_Alloc_hider", i64, %union.anon.22 }
%"struct.std::__cxx11::basic_string<char, std::char_traits<char>, glslang::pool_allocator<char>>::_Alloc_hider" = type { %"class.glslang::pool_allocator.21", ptr }
%"class.glslang::pool_allocator.21" = type { ptr }
%union.anon.22 = type { i64, [8 x i8] }
%"class.std::function" = type { %"class.std::_Function_base", ptr }
%"class.std::_Function_base" = type { %"union.std::_Any_data", ptr }
%"union.std::_Any_data" = type { %"union.std::_Nocopy_types" }
%"union.std::_Nocopy_types" = type { { i64, i64 } }
%"class.std::function.23" = type { %"class.std::_Function_base", ptr }
%"class.std::function.26" = type { %"class.std::_Function_base", ptr }
%"class.std::function.28" = type { %"class.std::_Function_base", ptr }
%"class.std::function.30" = type { %"class.std::_Function_base", ptr }
%"class.glslang::TMap.33" = type { %"class.std::map.34" }
%"class.std::map.34" = type { %"class.std::_Rb_tree.35" }
%"class.std::_Rb_tree.35" = type { %"struct.std::_Rb_tree<int, std::pair<const int, glslang::TVariable *>, std::_Select1st<std::pair<const int, glslang::TVariable *>>, std::less<int>, glslang::pool_allocator<std::pair<const int, glslang::TVariable *>>>::_Rb_tree_impl" }
%"struct.std::_Rb_tree<int, std::pair<const int, glslang::TVariable *>, std::_Select1st<std::pair<const int, glslang::TVariable *>>, std::less<int>, glslang::pool_allocator<std::pair<const int, glslang::TVariable *>>>::_Rb_tree_impl" = type { %"class.glslang::pool_allocator.36", %"struct.std::_Rb_tree_key_compare.37", %"struct.std::_Rb_tree_header" }
%"class.glslang::pool_allocator.36" = type { ptr }
%"struct.std::_Rb_tree_key_compare.37" = type { %"struct.std::less.38" }
%"struct.std::less.38" = type { i8 }
%"class.glslang::TMap.40" = type { %"class.std::map.41" }
%"class.std::map.41" = type { %"class.std::_Rb_tree.42" }
%"class.std::_Rb_tree.42" = type { %"struct.std::_Rb_tree<int, std::pair<const int, int>, std::_Select1st<std::pair<const int, int>>, std::less<int>, glslang::pool_allocator<std::pair<const int, int>>>::_Rb_tree_impl" }
%"struct.std::_Rb_tree<int, std::pair<const int, int>, std::_Select1st<std::pair<const int, int>>, std::less<int>, glslang::pool_allocator<std::pair<const int, int>>>::_Rb_tree_impl" = type { %"class.glslang::pool_allocator.43", %"struct.std::_Rb_tree_key_compare.37", %"struct.std::_Rb_tree_header" }
%"class.glslang::pool_allocator.43" = type { ptr }
%"class.glslang::TScanContext" = type <{ ptr, ptr, i8, i8, i8, i8, [4 x i8], %"struct.glslang::TSourceLoc", ptr, ptr, ptr, i32, [4 x i8] }>
%struct.anon = type { %"struct.glslang::TSourceLoc", %union.anon, ptr }
%union.anon = type { ptr }

; Function Attrs: mustprogress nounwind uwtable
define linkonce_odr noundef zeroext i1 @_ZNK7glslang5TType11isReferenceEv(ptr noundef nonnull align 8 dereferenceable(152) %0) #0 comdat align 2 {
  %2 = alloca ptr, align 8
  store ptr %0, ptr %2, align 8
  %3 = load ptr, ptr %2, align 8
  %4 = load ptr, ptr %3, align 8
  %5 = getelementptr inbounds ptr, ptr %4, i64 7
  %6 = load ptr, ptr %5, align 8
  %7 = call noundef i32 %6(ptr noundef nonnull align 8 dereferenceable(152) %3)
  %8 = icmp eq i32 %7, 18
  ret i1 %8
}

; Function Attrs: mustprogress nounwind uwtable
define noundef i32 @_ZN7glslang12TScanContext16identifierOrTypeEv(ptr noundef nonnull align 8 dereferenceable(76) %0) #0 align 2 {
  %2 = alloca i32, align 4
  %3 = alloca ptr, align 8
  %4 = alloca ptr, align 8
  store ptr %0, ptr %3, align 8
  %5 = load ptr, ptr %3, align 8
  %6 = getelementptr inbounds %"class.glslang::TScanContext", ptr %5, i32 0, i32 10
  %7 = load ptr, ptr %6, align 8
  %8 = call noundef ptr @_ZN7glslang14NewPoolTStringB5cxx11EPKc(ptr noundef %7)
  %9 = getelementptr inbounds %"class.glslang::TScanContext", ptr %5, i32 0, i32 8
  %10 = load ptr, ptr %9, align 8
  %11 = getelementptr inbounds %"class.glslang::TParserToken", ptr %10, i32 0, i32 0
  %12 = load ptr, ptr %11, align 8
  %13 = getelementptr inbounds %struct.anon, ptr %12, i32 0, i32 1
  store ptr %8, ptr %13, align 8
  %14 = getelementptr inbounds %"class.glslang::TScanContext", ptr %5, i32 0, i32 4
  %15 = load i8, ptr %14, align 2
  %16 = trunc i8 %15 to i1
  br i1 %16, label %17, label %18

17:                                               ; preds = %1
  store i32 646, ptr %2, align 4
  br label %89

18:                                               ; preds = %1
  %19 = getelementptr inbounds %"class.glslang::TScanContext", ptr %5, i32 0, i32 1
  %20 = load ptr, ptr %19, align 8
  %21 = getelementptr inbounds %"class.glslang::TParseContextBase", ptr %20, i32 0, i32 2
  %22 = load ptr, ptr %21, align 8
  %23 = getelementptr inbounds %"class.glslang::TScanContext", ptr %5, i32 0, i32 8
  %24 = load ptr, ptr %23, align 8
  %25 = getelementptr inbounds %"class.glslang::TParserToken", ptr %24, i32 0, i32 0
  %26 = load ptr, ptr %25, align 8
  %27 = getelementptr inbounds %struct.anon, ptr %26, i32 0, i32 1
  %28 = load ptr, ptr %27, align 8
  %29 = call noundef ptr @_ZN7glslang12TSymbolTable4findERKNSt7__cxx1112basic_stringIcSt11char_traitsIcENS_14pool_allocatorIcEEEEPbSA_Pi(ptr noundef nonnull align 8 dereferenceable(40) %22, ptr noundef nonnull align 8 dereferenceable(40) %28, ptr noundef null, ptr noundef null, ptr noundef null)
  %30 = getelementptr inbounds %"class.glslang::TScanContext", ptr %5, i32 0, i32 8
  %31 = load ptr, ptr %30, align 8
  %32 = getelementptr inbounds %"class.glslang::TParserToken", ptr %31, i32 0, i32 0
  %33 = load ptr, ptr %32, align 8
  %34 = getelementptr inbounds %struct.anon, ptr %33, i32 0, i32 2
  store ptr %29, ptr %34, align 8
  %35 = getelementptr inbounds %"class.glslang::TScanContext", ptr %5, i32 0, i32 2
  %36 = load i8, ptr %35, align 8
  %37 = trunc i8 %36 to i1
  %38 = zext i1 %37 to i32
  %39 = icmp eq i32 %38, 0
  br i1 %39, label %40, label %88

40:                                               ; preds = %18
  %41 = getelementptr inbounds %"class.glslang::TScanContext", ptr %5, i32 0, i32 3
  %42 = load i8, ptr %41, align 1
  %43 = trunc i8 %42 to i1
  %44 = zext i1 %43 to i32
  %45 = icmp eq i32 %44, 0
  br i1 %45, label %46, label %88

46:                                               ; preds = %40
  %47 = getelementptr inbounds %"class.glslang::TScanContext", ptr %5, i32 0, i32 8
  %48 = load ptr, ptr %47, align 8
  %49 = getelementptr inbounds %"class.glslang::TParserToken", ptr %48, i32 0, i32 0
  %50 = load ptr, ptr %49, align 8
  %51 = getelementptr inbounds %struct.anon, ptr %50, i32 0, i32 2
  %52 = load ptr, ptr %51, align 8
  %53 = icmp ne ptr %52, null
  br i1 %53, label %54, label %88

54:                                               ; preds = %46
  %55 = getelementptr inbounds %"class.glslang::TScanContext", ptr %5, i32 0, i32 8
  %56 = load ptr, ptr %55, align 8
  %57 = getelementptr inbounds %"class.glslang::TParserToken", ptr %56, i32 0, i32 0
  %58 = load ptr, ptr %57, align 8
  %59 = getelementptr inbounds %struct.anon, ptr %58, i32 0, i32 2
  %60 = load ptr, ptr %59, align 8
  %61 = load ptr, ptr %60, align 8
  %62 = getelementptr inbounds ptr, ptr %61, i64 9
  %63 = load ptr, ptr %62, align 8
  %64 = call noundef ptr %63(ptr noundef nonnull align 8 dereferenceable(33) %60)
  store ptr %64, ptr %4, align 8
  %65 = load ptr, ptr %4, align 8
  %66 = icmp ne ptr %65, null
  br i1 %66, label %67, label %87

67:                                               ; preds = %54
  %68 = load ptr, ptr %4, align 8
  %69 = load ptr, ptr %68, align 8
  %70 = getelementptr inbounds ptr, ptr %69, i64 22
  %71 = load ptr, ptr %70, align 8
  %72 = call noundef zeroext i1 %71(ptr noundef nonnull align 8 dereferenceable(236) %68)
  br i1 %72, label %73, label %86

73:                                               ; preds = %67
  %74 = load ptr, ptr %4, align 8
  %75 = load ptr, ptr %74, align 8
  %76 = getelementptr inbounds ptr, ptr %75, i64 12
  %77 = load ptr, ptr %76, align 8
  %78 = call noundef nonnull align 8 dereferenceable(152) ptr %77(ptr noundef nonnull align 8 dereferenceable(236) %74)
  %79 = call noundef zeroext i1 @_ZNK7glslang5TType11isReferenceEv(ptr noundef nonnull align 8 dereferenceable(152) %78)
  br i1 %79, label %80, label %84

80:                                               ; preds = %73
  %81 = getelementptr inbounds %"class.glslang::TScanContext", ptr %5, i32 0, i32 5
  %82 = load i8, ptr %81, align 1
  %83 = trunc i8 %82 to i1
  br i1 %83, label %86, label %84

84:                                               ; preds = %80, %73
  %85 = getelementptr inbounds %"class.glslang::TScanContext", ptr %5, i32 0, i32 2
  store i8 1, ptr %85, align 8
  store i32 647, ptr %2, align 4
  br label %89

86:                                               ; preds = %80, %67
  br label %87

87:                                               ; preds = %86, %54
  br label %88

88:                                               ; preds = %87, %46, %40, %18
  store i32 646, ptr %2, align 4
  br label %89

89:                                               ; preds = %88, %84, %17
  %90 = load i32, ptr %2, align 4
  ret i32 %90
}