; Function Attrs: mustprogress nounwind uwtable
define noundef range(i32 646, 648) i32 @_ZN7glslang12TScanContext16identifierOrTypeEv(ptr noundef nonnull align 8 captures(none) dereferenceable(76) %0) local_unnamed_addr #0 align 2 {
  %2 = getelementptr inbounds nuw i8, ptr %0, i64 64
  %3 = load ptr, ptr %2, align 8
  %4 = tail call noundef ptr @_ZN7glslang14NewPoolTStringB5cxx11EPKc(ptr noundef %3)
  %5 = getelementptr inbounds nuw i8, ptr %0, i64 48
  %6 = load ptr, ptr %5, align 8
  %7 = load ptr, ptr %6, align 8
  %8 = getelementptr inbounds nuw i8, ptr %7, i64 24
  store ptr %4, ptr %8, align 8
  %9 = getelementptr inbounds nuw i8, ptr %0, i64 18
  %10 = load i8, ptr %9, align 2
  %11 = trunc i8 %10 to i1
  br i1 %11, label %64, label %12

12:                                               ; preds = %1
  %13 = getelementptr inbounds nuw i8, ptr %0, i64 8
  %14 = load ptr, ptr %13, align 8
  %15 = getelementptr inbounds nuw i8, ptr %14, i64 232
  %16 = load ptr, ptr %15, align 8
  %17 = load ptr, ptr %5, align 8
  %18 = load ptr, ptr %17, align 8
  %19 = getelementptr inbounds nuw i8, ptr %18, i64 24
  %20 = load ptr, ptr %19, align 8
  %21 = tail call noundef ptr @_ZN7glslang12TSymbolTable4findERKNSt7__cxx1112basic_stringIcSt11char_traitsIcENS_14pool_allocatorIcEEEEPbSA_Pi(ptr noundef nonnull align 8 dereferenceable(40) %16, ptr noundef nonnull align 8 dereferenceable(40) %20, ptr noundef null, ptr noundef null, ptr noundef null)
  %22 = load ptr, ptr %5, align 8
  %23 = load ptr, ptr %22, align 8
  %24 = getelementptr inbounds nuw i8, ptr %23, i64 32
  store ptr %21, ptr %24, align 8
  %25 = getelementptr inbounds nuw i8, ptr %0, i64 16
  %26 = load i8, ptr %25, align 8
  %27 = and i8 %26, 1
  %28 = icmp eq i8 %27, 0
  br i1 %28, label %29, label %64

29:                                               ; preds = %12
  %30 = getelementptr inbounds nuw i8, ptr %0, i64 17
  %31 = load i8, ptr %30, align 1
  %32 = and i8 %31, 1
  %33 = icmp eq i8 %32, 0
  br i1 %33, label %34, label %64

34:                                               ; preds = %29
  %35 = load ptr, ptr %5, align 8
  %36 = load ptr, ptr %35, align 8
  %37 = getelementptr inbounds nuw i8, ptr %36, i64 32
  %38 = load ptr, ptr %37, align 8
  %.not = icmp eq ptr %38, null
  br i1 %.not, label %64, label %39

39:                                               ; preds = %34
  %40 = load ptr, ptr %38, align 8
  %41 = getelementptr inbounds nuw i8, ptr %40, i64 72
  %42 = load ptr, ptr %41, align 8
  %43 = tail call noundef ptr %42(ptr noundef nonnull align 8 dereferenceable(33) %38) #15
  %.not6 = icmp eq ptr %43, null
  br i1 %.not6, label %64, label %44

44:                                               ; preds = %39
  %45 = load ptr, ptr %43, align 8
  %46 = getelementptr inbounds nuw i8, ptr %45, i64 176
  %47 = load ptr, ptr %46, align 8
  %48 = tail call noundef zeroext i1 %47(ptr noundef nonnull align 8 dereferenceable(236) %43) #15
  br i1 %48, label %49, label %64

49:                                               ; preds = %44
  %50 = load ptr, ptr %43, align 8
  %51 = getelementptr inbounds nuw i8, ptr %50, i64 96
  %52 = load ptr, ptr %51, align 8
  %53 = tail call noundef nonnull align 8 dereferenceable(152) ptr %52(ptr noundef nonnull align 8 dereferenceable(236) %43) #15
  %54 = load ptr, ptr %53, align 8
  %55 = getelementptr inbounds nuw i8, ptr %54, i64 56
  %56 = load ptr, ptr %55, align 8
  %57 = tail call noundef i32 %56(ptr noundef nonnull align 8 dereferenceable(152) %53) #15
  %58 = icmp eq i32 %57, 18
  br i1 %58, label %59, label %63

59:                                               ; preds = %49
  %60 = getelementptr inbounds nuw i8, ptr %0, i64 19
  %61 = load i8, ptr %60, align 1
  %62 = trunc i8 %61 to i1
  br i1 %62, label %64, label %63

63:                                               ; preds = %59, %49
  store i8 1, ptr %25, align 8
  br label %64

64:                                               ; preds = %12, %29, %34, %44, %59, %39, %1, %63
  %.0 = phi i32 [ 647, %63 ], [ 646, %1 ], [ 646, %39 ], [ 646, %59 ], [ 646, %44 ], [ 646, %34 ], [ 646, %29 ], [ 646, %12 ]
  ret i32 %.0
}